; Function Attrs: nounwind uwtable
define i32 @ole2_list_pop(ptr nocapture noundef %0) local_unnamed_addr #2 {
  %2 = getelementptr inbounds i8, ptr %0, i64 8
  %3 = load ptr, ptr %2, align 8
  %.not = icmp eq ptr %3, null
  br i1 %.not, label %4, label %5

4:                                                ; preds = %1
  tail call void (ptr, ...) @cli_dbgmsg(ptr noundef nonnull @.str.1) #21
  br label %11

5:                                                ; preds = %1
  %6 = load i32, ptr %3, align 8
  %7 = getelementptr inbounds i8, ptr %3, i64 8
  %8 = load ptr, ptr %7, align 8
  tail call void @free(ptr noundef nonnull %3) #21
  store ptr %8, ptr %2, align 8
  %9 = load i32, ptr %0, align 8
  %10 = add i32 %9, -1
  store i32 %10, ptr %0, align 8
  br label %11

11:                                               ; preds = %5, %4
  %.0 = phi i32 [ -1, %4 ], [ %6, %5 ]
  ret i32 %.0
}